target datalayout = "e-m:e-p270:32:32-p271:32:32-p272:64:64-i64:64-i128:128-f80:128-n8:16:32:64-S128"
target triple = "x86_64-pc-linux-gnu"

%struct._GtkDarktableGradientSlider = type { %struct._GtkDrawingArea, ptr, i32, i32, i32, [10 x double], [10 x double], [10 x i32], double, double, [3 x double], i32, i32, i32, i32, i32, i32, i32, i32, i32, ptr }
%struct._GtkDrawingArea = type { %struct._GtkWidget, ptr }
%struct._GtkWidget = type { %struct._GObject, ptr }
%struct._GObject = type { %struct._GTypeInstance, i32, ptr }
%struct._GTypeInstance = type { ptr }

@.str.1 = private unnamed_addr constant [16 x i8] c"gslider != NULL\00", align 1
@__func__.dtgtk_gradient_slider_multivalue_get_values = private unnamed_addr constant [44 x i8] c"dtgtk_gradient_slider_multivalue_get_values\00", align 1

; Function Attrs: nounwind uwtable
define void @dtgtk_gradient_slider_multivalue_get_values(ptr noundef %0, ptr noundef %1) #0 {
  %3 = alloca ptr, align 8
  %4 = alloca ptr, align 8
  %5 = alloca i32, align 4
  %6 = alloca i32, align 4
  %7 = alloca i32, align 4
  store ptr %0, ptr %3, align 8, !tbaa !24
  store ptr %1, ptr %4, align 8, !tbaa !59
  br label %8

8:                                                ; preds = %2
  call void @llvm.lifetime.start.p0(i64 4, ptr %5) #11
  %9 = load ptr, ptr %3, align 8, !tbaa !24
  %10 = icmp ne ptr %9, null
  br i1 %10, label %11, label %12

11:                                               ; preds = %8
  store i32 1, ptr %5, align 4, !tbaa !13
  br label %13

12:                                               ; preds = %8
  store i32 0, ptr %5, align 4, !tbaa !13
  br label %13

13:                                               ; preds = %12, %11
  %14 = load i32, ptr %5, align 4, !tbaa !13
  store i32 %14, ptr %6, align 4, !tbaa !13
  call void @llvm.lifetime.end.p0(i64 4, ptr %5) #11
  %15 = load i32, ptr %6, align 4, !tbaa !13
  %16 = sext i32 %15 to i64
  %17 = call i64 @llvm.expect.i64(i64 %16, i64 1)
  %18 = icmp ne i64 %17, 0
  br i1 %18, label %19, label %20

19:                                               ; preds = %13
  br label %21

20:                                               ; preds = %13
  call void @g_return_if_fail_warning(ptr noundef null, ptr noundef @__func__.dtgtk_gradient_slider_multivalue_get_values, ptr noundef @.str.1)
  br label %51

21:                                               ; preds = %19
  br label %22

22:                                               ; preds = %21
  call void @llvm.lifetime.start.p0(i64 4, ptr %7) #11
  store i32 0, ptr %7, align 4, !tbaa !13
  br label %23

23:                                               ; preds = %48, %22
  %24 = load i32, ptr %7, align 4, !tbaa !13
  %25 = load ptr, ptr %3, align 8, !tbaa !24
  %26 = getelementptr inbounds nuw %struct._GtkDarktableGradientSlider, ptr %25, i32 0, i32 4
  %27 = load i32, ptr %26, align 8, !tbaa !26
  %28 = icmp slt i32 %24, %27
  br i1 %28, label %30, label %29

29:                                               ; preds = %23
  call void @llvm.lifetime.end.p0(i64 4, ptr %7) #11
  br label %51

30:                                               ; preds = %23
  %31 = load ptr, ptr %3, align 8, !tbaa !24
  %32 = getelementptr inbounds nuw %struct._GtkDarktableGradientSlider, ptr %31, i32 0, i32 20
  %33 = load ptr, ptr %32, align 8, !tbaa !43
  %34 = load ptr, ptr %3, align 8, !tbaa !24
  %35 = load ptr, ptr %3, align 8, !tbaa !24
  %36 = getelementptr inbounds nuw %struct._GtkDarktableGradientSlider, ptr %35, i32 0, i32 5
  %37 = load i32, ptr %7, align 4, !tbaa !13
  %38 = sext i32 %37 to i64
  %39 = getelementptr inbounds [10 x double], ptr %36, i64 0, i64 %38
  %40 = load double, ptr %39, align 8, !tbaa !45
  %41 = fptrunc reassoc nsz arcp contract afn double %40 to float
  %42 = call reassoc nsz arcp contract afn float %33(ptr noundef %34, float noundef %41, i32 noundef 2)
  %43 = fpext reassoc nsz arcp contract afn float %42 to double
  %44 = load ptr, ptr %4, align 8, !tbaa !59
  %45 = load i32, ptr %7, align 4, !tbaa !13
  %46 = sext i32 %45 to i64
  %47 = getelementptr inbounds double, ptr %44, i64 %46
  store double %43, ptr %47, align 8, !tbaa !45
  br label %48

48:                                               ; preds = %30
  %49 = load i32, ptr %7, align 4, !tbaa !13
  %50 = add nsw i32 %49, 1
  store i32 %50, ptr %7, align 4, !tbaa !13
  br label %23

51:                                               ; preds = %20, %29
  ret void
}