; Function Attrs: nounwind uwtable
define void @dtgtk_gradient_slider_multivalue_get_values(ptr noundef %0, ptr noundef writeonly captures(none) %1) local_unnamed_addr #0 {
  %.not = icmp eq ptr %0, null
  br i1 %.not, label %8, label %.preheader, !prof !45

.preheader:                                       ; preds = %2
  %3 = getelementptr inbounds nuw i8, ptr %0, i64 56
  %4 = load i32, ptr %3, align 8, !tbaa !16
  %5 = icmp sgt i32 %4, 0
  br i1 %5, label %.lr.ph, label %.loopexit

.lr.ph:                                           ; preds = %.preheader
  %6 = getelementptr inbounds nuw i8, ptr %0, i64 344
  %7 = getelementptr inbounds nuw i8, ptr %0, i64 64
  br label %9

8:                                                ; preds = %2
  tail call void @g_return_if_fail_warning(ptr noundef null, ptr noundef nonnull @__func__.dtgtk_gradient_slider_multivalue_get_values, ptr noundef nonnull @.str.1) #14
  br label %.loopexit

9:                                                ; preds = %.lr.ph, %9
  %indvars.iv = phi i64 [ 0, %.lr.ph ], [ %indvars.iv.next, %9 ]
  %10 = load ptr, ptr %6, align 8, !tbaa !34
  %11 = getelementptr inbounds nuw [10 x double], ptr %7, i64 0, i64 %indvars.iv
  %12 = load double, ptr %11, align 8, !tbaa !37
  %13 = fptrunc reassoc nsz arcp contract afn double %12 to float
  %14 = tail call reassoc nsz arcp contract afn float %10(ptr noundef nonnull %0, float noundef %13, i32 noundef 2) #14
  %15 = fpext reassoc nsz arcp contract afn float %14 to double
  %16 = getelementptr inbounds nuw double, ptr %1, i64 %indvars.iv
  store double %15, ptr %16, align 8, !tbaa !37
  %indvars.iv.next = add nuw nsw i64 %indvars.iv, 1
  %17 = load i32, ptr %3, align 8, !tbaa !16
  %18 = sext i32 %17 to i64
  %19 = icmp slt i64 %indvars.iv.next, %18
  br i1 %19, label %9, label %.loopexit

.loopexit:                                        ; preds = %9, %.preheader, %8
  ret void
}